; ModuleID = '5/1002.c'
source_filename = "5/1002.c"
target datalayout = "e-m:e-p270:32:32-p271:32:32-p272:64:64-i64:64-f80:128-n8:16:32:64-S128"
target triple = "x86_64-pc-linux-gnu"

@.str = private unnamed_addr constant [4 x i8] c"%lf\00", align 1
@.str.1 = private unnamed_addr constant [3 x i8] c"%s\00", align 1
@.str.2 = private unnamed_addr constant [6 x i8] c"error\00", align 1
@.str.3 = private unnamed_addr constant [4 x i8] c"yes\00", align 1
@.str.4 = private unnamed_addr constant [3 x i8] c"no\00", align 1

; Function Attrs: noinline nounwind uwtable
define dso_local i32 @main() #0 {
  %1 = alloca i32, align 4
  %2 = alloca i32, align 4
  %3 = alloca i32, align 4
  %4 = alloca i32, align 4
  %5 = alloca double, align 8
  %6 = alloca double, align 8
  %7 = alloca [500 x i8], align 16
  %8 = alloca [500 x i8], align 16
  store i32 0, i32* %1, align 4
  store i32 0, i32* %4, align 4
  store i32 0, i32* %3, align 4
  %9 = call i32 (i8*, ...) @__isoc99_scanf(i8* getelementptr inbounds ([4 x i8], [4 x i8]* @.str, i64 0, i64 0), double* %5)
  %10 = getelementptr inbounds [500 x i8], [500 x i8]* %7, i64 0, i64 0
  %11 = call i32 (i8*, ...) @__isoc99_scanf(i8* getelementptr inbounds ([3 x i8], [3 x i8]* @.str.1, i64 0, i64 0), i8* %10)
  %12 = getelementptr inbounds [500 x i8], [500 x i8]* %8, i64 0, i64 0
  %13 = call i32 (i8*, ...) @__isoc99_scanf(i8* getelementptr inbounds ([3 x i8], [3 x i8]* @.str.1, i64 0, i64 0), i8* %12)
  store i32 0, i32* %2, align 4
  br label %14

14:                                               ; preds = %50, %0
  %15 = load i32, i32* %2, align 4
  %16 = sext i32 %15 to i64
  %17 = getelementptr inbounds [500 x i8], [500 x i8]* %7, i64 0, i64 0
  %18 = call i64 @strlen(i8* %17) #3
  %19 = icmp ult i64 %16, %18
  br i1 %19, label %20, label %53

20:                                               ; preds = %14
  %21 = load i32, i32* %2, align 4
  %22 = sext i32 %21 to i64
  %23 = getelementptr inbounds [500 x i8], [500 x i8]* %7, i64 0, i64 %22
  %24 = load i8, i8* %23, align 1
  %25 = sext i8 %24 to i32
  %26 = icmp slt i32 %25, 65
  br i1 %26, label %48, label %27

27:                                               ; preds = %20
  %28 = load i32, i32* %2, align 4
  %29 = sext i32 %28 to i64
  %30 = getelementptr inbounds [500 x i8], [500 x i8]* %7, i64 0, i64 %29
  %31 = load i8, i8* %30, align 1
  %32 = sext i8 %31 to i32
  %33 = icmp sgt i32 %32, 90
  br i1 %33, label %48, label %34

34:                                               ; preds = %27
  %35 = load i32, i32* %2, align 4
  %36 = sext i32 %35 to i64
  %37 = getelementptr inbounds [500 x i8], [500 x i8]* %8, i64 0, i64 %36
  %38 = load i8, i8* %37, align 1
  %39 = sext i8 %38 to i32
  %40 = icmp slt i32 %39, 65
  br i1 %40, label %48, label %41

41:                                               ; preds = %34
  %42 = load i32, i32* %2, align 4
  %43 = sext i32 %42 to i64
  %44 = getelementptr inbounds [500 x i8], [500 x i8]* %8, i64 0, i64 %43
  %45 = load i8, i8* %44, align 1
  %46 = sext i8 %45 to i32
  %47 = icmp sgt i32 %46, 90
  br i1 %47, label %48, label %49

48:                                               ; preds = %41, %34, %27, %20
  store i32 1, i32* %4, align 4
  br label %49

49:                                               ; preds = %48, %41
  br label %50

50:                                               ; preds = %49
  %51 = load i32, i32* %2, align 4
  %52 = add nsw i32 %51, 1
  store i32 %52, i32* %2, align 4
  br label %14

53:                                               ; preds = %14
  %54 = getelementptr inbounds [500 x i8], [500 x i8]* %7, i64 0, i64 0
  %55 = call i64 @strlen(i8* %54) #3
  %56 = getelementptr inbounds [500 x i8], [500 x i8]* %8, i64 0, i64 0
  %57 = call i64 @strlen(i8* %56) #3
  %58 = icmp ne i64 %55, %57
  br i1 %58, label %62, label %59

59:                                               ; preds = %53
  %60 = load i32, i32* %4, align 4
  %61 = icmp eq i32 %60, 1
  br i1 %61, label %62, label %64

62:                                               ; preds = %59, %53
  %63 = call i32 (i8*, ...) @printf(i8* getelementptr inbounds ([6 x i8], [6 x i8]* @.str.2, i64 0, i64 0))
  br label %106

64:                                               ; preds = %59
  store i32 0, i32* %2, align 4
  br label %65

65:                                               ; preds = %87, %64
  %66 = load i32, i32* %2, align 4
  %67 = sext i32 %66 to i64
  %68 = getelementptr inbounds [500 x i8], [500 x i8]* %7, i64 0, i64 0
  %69 = call i64 @strlen(i8* %68) #3
  %70 = icmp ult i64 %67, %69
  br i1 %70, label %71, label %90

71:                                               ; preds = %65
  %72 = load i32, i32* %2, align 4
  %73 = sext i32 %72 to i64
  %74 = getelementptr inbounds [500 x i8], [500 x i8]* %7, i64 0, i64 %73
  %75 = load i8, i8* %74, align 1
  %76 = sext i8 %75 to i32
  %77 = load i32, i32* %2, align 4
  %78 = sext i32 %77 to i64
  %79 = getelementptr inbounds [500 x i8], [500 x i8]* %8, i64 0, i64 %78
  %80 = load i8, i8* %79, align 1
  %81 = sext i8 %80 to i32
  %82 = icmp eq i32 %76, %81
  br i1 %82, label %83, label %86

83:                                               ; preds = %71
  %84 = load i32, i32* %3, align 4
  %85 = add nsw i32 %84, 1
  store i32 %85, i32* %3, align 4
  br label %86

86:                                               ; preds = %83, %71
  br label %87

87:                                               ; preds = %86
  %88 = load i32, i32* %2, align 4
  %89 = add nsw i32 %88, 1
  store i32 %89, i32* %2, align 4
  br label %65

90:                                               ; preds = %65
  %91 = load i32, i32* %3, align 4
  %92 = sitofp i32 %91 to double
  %93 = fmul double 1.000000e+00, %92
  %94 = getelementptr inbounds [500 x i8], [500 x i8]* %7, i64 0, i64 0
  %95 = call i64 @strlen(i8* %94) #3
  %96 = uitofp i64 %95 to double
  %97 = fdiv double %93, %96
  store double %97, double* %6, align 8
  %98 = load double, double* %6, align 8
  %99 = load double, double* %5, align 8
  %100 = fcmp ogt double %98, %99
  br i1 %100, label %101, label %103

101:                                              ; preds = %90
  %102 = call i32 (i8*, ...) @printf(i8* getelementptr inbounds ([4 x i8], [4 x i8]* @.str.3, i64 0, i64 0))
  br label %105

103:                                              ; preds = %90
  %104 = call i32 (i8*, ...) @printf(i8* getelementptr inbounds ([3 x i8], [3 x i8]* @.str.4, i64 0, i64 0))
  br label %105

105:                                              ; preds = %103, %101
  br label %106

106:                                              ; preds = %105, %62
  ret i32 0
}

declare dso_local i32 @__isoc99_scanf(i8*, ...) #1

; Function Attrs: nounwind readonly
declare dso_local i64 @strlen(i8*) #2

declare dso_local i32 @printf(i8*, ...) #1


!llvm.module.flags = !{!0}
!llvm.ident = !{!1}

!0 = !{i32 1, !"wchar_size", i32 4}
!1 = !{!"clang version 10.0.0-4ubuntu1 "}
